target datalayout = "e-m:e-p270:32:32-p271:32:32-p272:64:64-i64:64-i128:128-f80:128-n8:16:32:64-S128"
target triple = "x86_64-pc-linux-gnu"

%struct.archive_entry = type { ptr, ptr, i32, %struct.aest, i32, %struct.archive_mstring, i64, i64, %struct.archive_mstring, %struct.archive_mstring, %struct.archive_mstring, %struct.archive_mstring, %struct.archive_mstring, i8, ptr, i64, %struct.ae_digest, %struct.archive_acl, ptr, ptr, ptr, ptr, ptr, [12 x i8], i32 }
%struct.aest = type { i64, i32, i64, i32, i64, i32, i64, i32, i64, i64, i32, i64, i64, i32, i64, i64, i64, i32, i64, i64, i64 }
%struct.archive_mstring = type { %struct.archive_string, %struct.archive_string, %struct.archive_wstring, %struct.archive_string, i32 }
%struct.archive_wstring = type { ptr, i64, i64 }
%struct.archive_string = type { ptr, i64, i64 }
%struct.ae_digest = type { [16 x i8], [20 x i8], [20 x i8], [32 x i8], [48 x i8], [64 x i8] }
%struct.archive_acl = type { i32, ptr, ptr, i32, ptr, ptr, i32 }

@.str = private unnamed_addr constant [10 x i8] c"No memory\00", align 1

; Function Attrs: nounwind uwtable
define dso_local i32 @archive_entry_acl_next(ptr noundef %0, i32 noundef %1, ptr noundef %2, ptr noundef %3, ptr noundef %4, ptr noundef %5, ptr noundef %6) #0 {
  %8 = alloca ptr, align 8
  %9 = alloca i32, align 4
  %10 = alloca ptr, align 8
  %11 = alloca ptr, align 8
  %12 = alloca ptr, align 8
  %13 = alloca ptr, align 8
  %14 = alloca ptr, align 8
  %15 = alloca i32, align 4
  store ptr %0, ptr %8, align 8, !tbaa !4
  store i32 %1, ptr %9, align 4, !tbaa !32
  store ptr %2, ptr %10, align 8, !tbaa !79
  store ptr %3, ptr %11, align 8, !tbaa !79
  store ptr %4, ptr %12, align 8, !tbaa !79
  store ptr %5, ptr %13, align 8, !tbaa !79
  store ptr %6, ptr %14, align 8, !tbaa !80
  call void @llvm.lifetime.start.p0(i64 4, ptr %15) #13
  %16 = load ptr, ptr %8, align 8, !tbaa !4
  %17 = getelementptr inbounds nuw %struct.archive_entry, ptr %16, i32 0, i32 0
  %18 = load ptr, ptr %17, align 8, !tbaa !30
  %19 = load ptr, ptr %8, align 8, !tbaa !4
  %20 = getelementptr inbounds nuw %struct.archive_entry, ptr %19, i32 0, i32 17
  %21 = load i32, ptr %9, align 4, !tbaa !32
  %22 = load ptr, ptr %10, align 8, !tbaa !79
  %23 = load ptr, ptr %11, align 8, !tbaa !79
  %24 = load ptr, ptr %12, align 8, !tbaa !79
  %25 = load ptr, ptr %13, align 8, !tbaa !79
  %26 = load ptr, ptr %14, align 8, !tbaa !80
  %27 = call i32 @archive_acl_next(ptr noundef %18, ptr noundef %20, i32 noundef %21, ptr noundef %22, ptr noundef %23, ptr noundef %24, ptr noundef %25, ptr noundef %26)
  store i32 %27, ptr %15, align 4, !tbaa !32
  %28 = load i32, ptr %15, align 4, !tbaa !32
  %29 = icmp eq i32 %28, -30
  br i1 %29, label %30, label %35

30:                                               ; preds = %7
  %31 = call ptr @__errno_location() #17
  %32 = load i32, ptr %31, align 4, !tbaa !32
  %33 = icmp eq i32 %32, 12
  br i1 %33, label %34, label %35

34:                                               ; preds = %30
  call void @__archive_errx(i32 noundef 1, ptr noundef @.str) #18
  unreachable

35:                                               ; preds = %30, %7
  %36 = load i32, ptr %15, align 4, !tbaa !32
  call void @llvm.lifetime.end.p0(i64 4, ptr %15) #13
  ret i32 %36
}