; Function Attrs: nounwind uwtable
define dso_local i32 @archive_entry_acl_next(ptr noundef %0, i32 noundef %1, ptr noundef %2, ptr noundef %3, ptr noundef %4, ptr noundef %5, ptr noundef %6) local_unnamed_addr #0 {
  %8 = load ptr, ptr %0, align 8, !tbaa !25
  %9 = getelementptr inbounds nuw i8, ptr %0, i64 1064
  %10 = tail call i32 @archive_acl_next(ptr noundef %8, ptr noundef nonnull %9, i32 noundef %1, ptr noundef %2, ptr noundef %3, ptr noundef %4, ptr noundef %5, ptr noundef %6) #21
  %11 = icmp eq i32 %10, -30
  br i1 %11, label %12, label %17

12:                                               ; preds = %7
  %13 = tail call ptr @__errno_location() #25
  %14 = load i32, ptr %13, align 4, !tbaa !28
  %15 = icmp eq i32 %14, 12
  br i1 %15, label %16, label %17

16:                                               ; preds = %12
  tail call void @__archive_errx(i32 noundef 1, ptr noundef nonnull @.str) #23
  unreachable

17:                                               ; preds = %12, %7
  ret i32 %10
}